target datalayout = "e-m:e-p270:32:32-p271:32:32-p272:64:64-i64:64-i128:128-f80:128-n8:16:32:64-S128"
target triple = "x86_64-pc-linux-gnu"

%"class.icu_77::UObject" = type { ptr }
%"class.icu_77::DateFormatSymbols" = type { %"class.icu_77::UObject", ptr, i32, ptr, i32, ptr, i32, ptr, i32, ptr, i32, ptr, i32, ptr, i32, ptr, i32, ptr, i32, ptr, i32, ptr, i32, ptr, i32, ptr, i32, ptr, i32, ptr, i32, ptr, i32, ptr, i32, ptr, i32, ptr, i32, %"class.icu_77::UnicodeString", ptr, i32, ptr, i32, ptr, i32, ptr, i32, ptr, i32, ptr, i32, ptr, i32, ptr, i32, ptr, i32, ptr, ptr, i32, i32, %"class.icu_77::Locale", %"class.icu_77::UnicodeString", [14 x [2 x i8]], ptr, i32, ptr, i32, ptr, i32, ptr, i32, ptr, i32, ptr, i32, ptr, ptr }
%"class.icu_77::Locale" = type <{ %"class.icu_77::UObject", [12 x i8], [6 x i8], [4 x i8], [2 x i8], i32, [4 x i8], ptr, [157 x i8], [3 x i8], ptr, i8, [7 x i8] }>
%"class.icu_77::UnicodeString" = type { %"class.icu_77::Replaceable", %"union.icu_77::UnicodeString::StackBufferOrFields" }
%"class.icu_77::Replaceable" = type { %"class.icu_77::UObject" }
%"union.icu_77::UnicodeString::StackBufferOrFields" = type { %struct.anon.0, [32 x i8] }
%struct.anon.0 = type { i16, i32, i32, ptr }
%struct.anon = type { i16, [27 x i16] }

@_ZTVN6icu_777UObjectE = available_externally unnamed_addr constant { [5 x ptr] } { [5 x ptr] [ptr null, ptr @_ZTIN6icu_777UObjectE, ptr @_ZN6icu_777UObjectD1Ev, ptr @_ZN6icu_777UObjectD0Ev, ptr @_ZNK6icu_777UObject17getDynamicClassIDEv] }, align 8

; Function Attrs: inlinehint mustprogress nounwind uwtable
define linkonce_odr void @_ZN6icu_777UObjectC2Ev(ptr noundef nonnull align 8 dereferenceable(8) %0) unnamed_addr #2 comdat align 2 {
  %2 = alloca ptr, align 8
  store ptr %0, ptr %2, align 8, !tbaa !48
  %3 = load ptr, ptr %2, align 8
  store ptr getelementptr inbounds inrange(-16, 24) ({ [5 x ptr] }, ptr @_ZTVN6icu_777UObjectE, i32 0, i32 0, i32 2), ptr %3, align 8, !tbaa !25
  ret void
}

; Function Attrs: inlinehint mustprogress nounwind uwtable
define linkonce_odr void @_ZN6icu_7711ReplaceableC2Ev(ptr noundef nonnull align 8 dereferenceable(8) %0) unnamed_addr #2 comdat align 2 {
  %2 = alloca ptr, align 8
  store ptr %0, ptr %2, align 8, !tbaa !218
  %3 = load ptr, ptr %2, align 8
  call void @_ZN6icu_777UObjectC2Ev(ptr noundef nonnull align 8 dereferenceable(8) %3) #14
  store ptr getelementptr inbounds inrange(-16, 88) ({ [13 x ptr] }, ptr @_ZTVN6icu_7711ReplaceableE, i32 0, i32 0, i32 2), ptr %3, align 8, !tbaa !25
  ret void
}

; Function Attrs: inlinehint mustprogress uwtable
define linkonce_odr void @_ZN6icu_7713UnicodeStringC2Ev(ptr noundef nonnull align 8 dereferenceable(64) %0) unnamed_addr #3 comdat align 2 {
  %2 = alloca ptr, align 8
  store ptr %0, ptr %2, align 8, !tbaa !50
  %3 = load ptr, ptr %2, align 8
  call void @_ZN6icu_7711ReplaceableC2Ev(ptr noundef nonnull align 8 dereferenceable(8) %3)
  store ptr getelementptr inbounds inrange(-16, 88) ({ [13 x ptr] }, ptr @_ZTVN6icu_7713UnicodeStringE, i32 0, i32 0, i32 2), ptr %3, align 8, !tbaa !25
  %4 = getelementptr inbounds nuw %"class.icu_77::UnicodeString", ptr %3, i32 0, i32 1
  %5 = getelementptr inbounds nuw %struct.anon, ptr %4, i32 0, i32 0
  store i16 2, ptr %5, align 8, !tbaa !51
  ret void
}

; Function Attrs: inlinehint mustprogress uwtable
define internal void @_ZL14uprv_arrayCopyPKN6icu_7713UnicodeStringEPS0_i(ptr noundef %0, ptr noundef %1, i32 noundef %2) #3 {
  %4 = alloca ptr, align 8
  %5 = alloca ptr, align 8
  %6 = alloca i32, align 4
  store ptr %0, ptr %4, align 8, !tbaa !50
  store ptr %1, ptr %5, align 8, !tbaa !50
  store i32 %2, ptr %6, align 4, !tbaa !14
  br label %7

7:                                                ; preds = %11, %3
  %8 = load i32, ptr %6, align 4, !tbaa !14
  %9 = add nsw i32 %8, -1
  store i32 %9, ptr %6, align 4, !tbaa !14
  %10 = icmp sgt i32 %8, 0
  br i1 %10, label %11, label %17

11:                                               ; preds = %7
  %12 = load ptr, ptr %4, align 8, !tbaa !50
  %13 = getelementptr inbounds nuw %"class.icu_77::UnicodeString", ptr %12, i32 1
  store ptr %13, ptr %4, align 8, !tbaa !50
  %14 = load ptr, ptr %5, align 8, !tbaa !50
  %15 = getelementptr inbounds nuw %"class.icu_77::UnicodeString", ptr %14, i32 1
  store ptr %15, ptr %5, align 8, !tbaa !50
  %16 = call noundef nonnull align 8 dereferenceable(64) ptr @_ZN6icu_7713UnicodeStringaSERKS0_(ptr noundef nonnull align 8 dereferenceable(64) %14, ptr noundef nonnull align 8 dereferenceable(64) %12)
  br label %7, !llvm.loop !155

17:                                               ; preds = %7
  ret void
}

; Function Attrs: inlinehint mustprogress uwtable
define internal noundef ptr @_ZN6icu_77L21newUnicodeStringArrayEm(i64 noundef %0) #3 personality ptr @__gxx_personality_v0 {
  %2 = alloca i64, align 8
  %3 = alloca ptr, align 8
  %4 = alloca i64, align 8
  %5 = alloca i1, align 1
  %6 = alloca ptr, align 8
  %7 = alloca ptr, align 8
  %8 = alloca i1, align 1
  %9 = alloca ptr, align 8
  %10 = alloca i32, align 4
  store i64 %0, ptr %2, align 8, !tbaa !18
  %11 = load i64, ptr %2, align 8, !tbaa !18
  %12 = icmp ne i64 %11, 0
  br i1 %12, label %13, label %15

13:                                               ; preds = %1
  %14 = load i64, ptr %2, align 8, !tbaa !18
  br label %16

15:                                               ; preds = %1
  br label %16

16:                                               ; preds = %15, %13
  %17 = phi i64 [ %14, %13 ], [ 1, %15 ]
  %18 = call { i64, i1 } @llvm.umul.with.overflow.i64(i64 %17, i64 64)
  %19 = extractvalue { i64, i1 } %18, 1
  %20 = extractvalue { i64, i1 } %18, 0
  %21 = call { i64, i1 } @llvm.uadd.with.overflow.i64(i64 %20, i64 8)
  %22 = extractvalue { i64, i1 } %21, 1
  %23 = or i1 %19, %22
  %24 = extractvalue { i64, i1 } %21, 0
  %25 = select i1 %23, i64 -1, i64 %24
  %26 = call noundef ptr @_ZN6icu_777UMemorynaEm(i64 noundef %25) #14
  %27 = icmp eq ptr %26, null
  store i1 false, ptr %5, align 1
  store i1 false, ptr %8, align 1
  br i1 %27, label %39, label %28

28:                                               ; preds = %16
  store ptr %26, ptr %3, align 8
  store i64 %25, ptr %4, align 8
  store i1 true, ptr %5, align 1
  store i64 %17, ptr %26, align 8
  %29 = getelementptr inbounds i8, ptr %26, i64 8
  %30 = icmp eq i64 %17, 0
  br i1 %30, label %38, label %31

31:                                               ; preds = %28
  %32 = getelementptr inbounds %"class.icu_77::UnicodeString", ptr %29, i64 %17
  br label %33

33:                                               ; preds = %35, %31
  %34 = phi ptr [ %29, %31 ], [ %36, %35 ]
  store ptr %29, ptr %6, align 8
  store ptr %34, ptr %7, align 8
  store i1 true, ptr %8, align 1
  invoke void @_ZN6icu_7713UnicodeStringC2Ev(ptr noundef nonnull align 8 dereferenceable(64) %34)
          to label %35 unwind label %41

35:                                               ; preds = %33
  %36 = getelementptr inbounds %"class.icu_77::UnicodeString", ptr %34, i64 1
  %37 = icmp eq ptr %36, %32
  br i1 %37, label %38, label %33

38:                                               ; preds = %28, %35
  br label %39

39:                                               ; preds = %38, %16
  %40 = phi ptr [ %29, %38 ], [ null, %16 ]
  ret ptr %40

41:                                               ; preds = %33
  %42 = landingpad { ptr, i32 }
          cleanup
  %43 = extractvalue { ptr, i32 } %42, 0
  store ptr %43, ptr %9, align 8
  %44 = extractvalue { ptr, i32 } %42, 1
  store i32 %44, ptr %10, align 4
  %45 = load i1, ptr %8, align 1
  br i1 %45, label %46, label %55

46:                                               ; preds = %41
  %47 = load ptr, ptr %6, align 8
  %48 = load ptr, ptr %7, align 8
  %49 = icmp eq ptr %47, %48
  br i1 %49, label %54, label %50

50:                                               ; preds = %50, %46
  %51 = phi ptr [ %48, %46 ], [ %52, %50 ]
  %52 = getelementptr inbounds %"class.icu_77::UnicodeString", ptr %51, i64 -1
  call void @_ZN6icu_7713UnicodeStringD1Ev(ptr noundef nonnull align 8 dereferenceable(64) %52) #14
  %53 = icmp eq ptr %52, %47
  br i1 %53, label %54, label %50

54:                                               ; preds = %50, %46
  br label %55

55:                                               ; preds = %54, %41
  %56 = load i1, ptr %5, align 1
  br i1 %56, label %57, label %59

57:                                               ; preds = %55
  %58 = load ptr, ptr %3, align 8
  call void @_ZN6icu_777UMemorydaEPv(ptr noundef %58) #14
  br label %59

59:                                               ; preds = %57, %55
  br label %60

60:                                               ; preds = %59
  %61 = load ptr, ptr %9, align 8
  %62 = load i32, ptr %10, align 4
  %63 = insertvalue { ptr, i32 } poison, ptr %61, 0
  %64 = insertvalue { ptr, i32 } %63, i32 %62, 1
  resume { ptr, i32 } %64
}

; Function Attrs: mustprogress uwtable
define void @_ZN6icu_7717DateFormatSymbols11setWeekdaysEPKNS_13UnicodeStringEi(ptr noundef nonnull align 8 dereferenceable(976) %0, ptr noundef %1, i32 noundef %2) #1 align 2 {
  %4 = alloca ptr, align 8
  %5 = alloca ptr, align 8
  %6 = alloca i32, align 4
  store ptr %0, ptr %4, align 8, !tbaa !31
  store ptr %1, ptr %5, align 8, !tbaa !50
  store i32 %2, ptr %6, align 4, !tbaa !14
  %7 = load ptr, ptr %4, align 8
  %8 = getelementptr inbounds nuw %"class.icu_77::DateFormatSymbols", ptr %7, i32 0, i32 19
  %9 = load ptr, ptr %8, align 8, !tbaa !70
  %10 = icmp eq ptr %9, null
  br i1 %10, label %21, label %11

11:                                               ; preds = %3
  %12 = getelementptr inbounds i8, ptr %9, i64 -8
  %13 = load i64, ptr %12, align 8
  %14 = getelementptr inbounds %"class.icu_77::UnicodeString", ptr %9, i64 %13
  %15 = icmp eq ptr %9, %14
  br i1 %15, label %20, label %16

16:                                               ; preds = %16, %11
  %17 = phi ptr [ %14, %11 ], [ %18, %16 ]
  %18 = getelementptr inbounds %"class.icu_77::UnicodeString", ptr %17, i64 -1
  call void @_ZN6icu_7713UnicodeStringD1Ev(ptr noundef nonnull align 8 dereferenceable(64) %18) #14
  %19 = icmp eq ptr %18, %9
  br i1 %19, label %20, label %16

20:                                               ; preds = %16, %11
  call void @_ZN6icu_777UMemorydaEPv(ptr noundef %12) #14
  br label %21

21:                                               ; preds = %20, %3
  %22 = load i32, ptr %6, align 4, !tbaa !14
  %23 = sext i32 %22 to i64
  %24 = call noundef ptr @_ZN6icu_77L21newUnicodeStringArrayEm(i64 noundef %23)
  %25 = getelementptr inbounds nuw %"class.icu_77::DateFormatSymbols", ptr %7, i32 0, i32 19
  store ptr %24, ptr %25, align 8, !tbaa !70
  %26 = load ptr, ptr %5, align 8, !tbaa !50
  %27 = getelementptr inbounds nuw %"class.icu_77::DateFormatSymbols", ptr %7, i32 0, i32 19
  %28 = load ptr, ptr %27, align 8, !tbaa !70
  %29 = load i32, ptr %6, align 4, !tbaa !14
  call void @_ZL14uprv_arrayCopyPKN6icu_7713UnicodeStringEPS0_i(ptr noundef %26, ptr noundef %28, i32 noundef %29)
  %30 = load i32, ptr %6, align 4, !tbaa !14
  %31 = getelementptr inbounds nuw %"class.icu_77::DateFormatSymbols", ptr %7, i32 0, i32 20
  store i32 %30, ptr %31, align 8, !tbaa !71
  ret void
}